; Function Attrs: nounwind uwtable
define i64 @b2World_OverlapCapsule(i32 %0, ptr noundef %1, <2 x float> %2, <2 x float> %3, i64 %4, i64 %5, ptr noundef %6, ptr noundef %7) local_unnamed_addr #8 {
  %9 = alloca %struct.WorldOverlapContext, align 8
  %10 = and i32 %0, 65535
  %11 = zext nneg i32 %10 to i64
  %12 = getelementptr %struct.b2World, ptr @b2_worlds, i64 %11
  %13 = getelementptr i8, ptr %12, i64 -9
  %14 = load i8, ptr %13, align 1, !tbaa !35, !range !77, !noundef !78
  %15 = trunc nuw i8 %14 to i1
  br i1 %15, label %39, label %16

16:                                               ; preds = %8
  %17 = getelementptr i8, ptr %12, i64 -1792
  %18 = tail call { <2 x float>, <2 x float> } @b2ComputeCapsuleAABB(ptr noundef %1, <2 x float> %2, <2 x float> %3) #22
  %19 = extractvalue { <2 x float>, <2 x float> } %18, 0
  %20 = extractvalue { <2 x float>, <2 x float> } %18, 1
  call void @llvm.lifetime.start.p0(i64 128, ptr nonnull %9) #22
  store ptr %17, ptr %9, align 8, !tbaa !419
  %21 = getelementptr inbounds nuw i8, ptr %9, i64 8
  store ptr %6, ptr %21, align 8, !tbaa !422
  %22 = getelementptr inbounds nuw i8, ptr %9, i64 16
  store i64 %4, ptr %22, align 8, !tbaa !227
  %.sroa.2.0..sroa_idx = getelementptr inbounds nuw i8, ptr %9, i64 24
  store i64 %5, ptr %.sroa.2.0..sroa_idx, align 8, !tbaa !227
  %23 = getelementptr inbounds nuw i8, ptr %9, i64 32
  %24 = getelementptr inbounds nuw i8, ptr %1, i64 16
  %25 = load float, ptr %24, align 4, !tbaa !317
  call void @b2MakeProxy(ptr dead_on_unwind nonnull writable sret(%struct.b2ShapeProxy) align 4 %23, ptr noundef %1, i32 noundef 2, float noundef %25) #22
  %26 = getelementptr inbounds nuw i8, ptr %9, i64 104
  store <2 x float> %2, ptr %26, align 8
  %.sroa.3.0..sroa_idx = getelementptr inbounds nuw i8, ptr %9, i64 112
  store <2 x float> %3, ptr %.sroa.3.0..sroa_idx, align 8
  %27 = getelementptr inbounds nuw i8, ptr %9, i64 120
  store ptr %7, ptr %27, align 8, !tbaa !423
  %28 = getelementptr i8, ptr %12, i64 -1752
  br label %34

29:                                               ; preds = %34
  call void @llvm.lifetime.end.p0(i64 128, ptr nonnull %9) #22
  %30 = zext i32 %38 to i64
  %31 = shl nuw i64 %30, 32
  %32 = zext i32 %37 to i64
  %33 = or disjoint i64 %31, %32
  br label %39

34:                                               ; preds = %16, %34
  %indvars.iv = phi i64 [ 0, %16 ], [ %indvars.iv.next, %34 ]
  %.sroa.015.122 = phi i32 [ 0, %16 ], [ %37, %34 ]
  %.sroa.417.121 = phi i32 [ 0, %16 ], [ %38, %34 ]
  %35 = getelementptr inbounds nuw %struct.b2DynamicTree, ptr %28, i64 %indvars.iv
  %36 = call i64 @b2DynamicTree_Query(ptr noundef nonnull %35, <2 x float> %19, <2 x float> %20, i64 noundef %5, ptr noundef nonnull @TreeOverlapCallback, ptr noundef nonnull %9) #22
  %.sroa.0.0.extract.trunc = trunc i64 %36 to i32
  %.sroa.4.0.extract.shift = lshr i64 %36, 32
  %.sroa.4.0.extract.trunc = trunc nuw i64 %.sroa.4.0.extract.shift to i32
  %37 = add nsw i32 %.sroa.015.122, %.sroa.0.0.extract.trunc
  %38 = add nsw i32 %.sroa.417.121, %.sroa.4.0.extract.trunc
  %indvars.iv.next = add nuw nsw i64 %indvars.iv, 1
  %exitcond.not = icmp eq i64 %indvars.iv.next, 3
  br i1 %exitcond.not, label %29, label %34, !llvm.loop !432

39:                                               ; preds = %8, %29
  %.sroa.015.0.insert.insert = phi i64 [ %33, %29 ], [ 0, %8 ]
  ret i64 %.sroa.015.0.insert.insert
}